target datalayout = "e-m:e-p270:32:32-p271:32:32-p272:64:64-i64:64-i128:128-f80:128-n8:16:32:64-S128"
target triple = "x86_64-pc-linux-gnu"

%struct.lua_State = type { %struct.GCRef, i8, i8, i8, i8, %struct.MRef, %struct.GCRef, ptr, ptr, %struct.MRef, %struct.MRef, %struct.GCRef, %struct.GCRef, ptr, i32 }
%struct.MRef = type { i64 }
%struct.GCRef = type { i64 }
%union.TValue = type { i64 }
%union.U64double = type { i64 }
%struct.GCfuncC = type { %struct.GCRef, i8, i8, i8, i8, %struct.GCRef, %struct.GCRef, %struct.MRef, ptr, [1 x %union.TValue] }
%struct.GCudata = type { %struct.GCRef, i8, i8, i8, i8, %struct.GCRef, i32, %struct.GCRef, i32 }

; Function Attrs: nounwind uwtable
define internal i32 @lj_cf_math_random(ptr noundef %0) #0 {
  %2 = alloca ptr, align 8
  %3 = alloca i32, align 4
  %4 = alloca ptr, align 8
  %5 = alloca %union.U64double, align 8
  %6 = alloca double, align 8
  %7 = alloca double, align 8
  %8 = alloca double, align 8
  store ptr %0, ptr %2, align 8, !tbaa !4
  call void @llvm.lifetime.start.p0(i64 4, ptr %3) #7
  %9 = load ptr, ptr %2, align 8, !tbaa !4
  %10 = getelementptr inbounds nuw %struct.lua_State, ptr %9, i32 0, i32 8
  %11 = load ptr, ptr %10, align 8, !tbaa !21
  %12 = load ptr, ptr %2, align 8, !tbaa !4
  %13 = getelementptr inbounds nuw %struct.lua_State, ptr %12, i32 0, i32 7
  %14 = load ptr, ptr %13, align 8, !tbaa !15
  %15 = ptrtoint ptr %11 to i64
  %16 = ptrtoint ptr %14 to i64
  %17 = sub i64 %15, %16
  %18 = sdiv exact i64 %17, 8
  %19 = trunc i64 %18 to i32
  store i32 %19, ptr %3, align 4, !tbaa !22
  call void @llvm.lifetime.start.p0(i64 8, ptr %4) #7
  %20 = load ptr, ptr %2, align 8, !tbaa !4
  %21 = getelementptr inbounds nuw %struct.lua_State, ptr %20, i32 0, i32 7
  %22 = load ptr, ptr %21, align 8, !tbaa !15
  %23 = getelementptr inbounds %union.TValue, ptr %22, i64 -2
  %24 = getelementptr inbounds nuw %struct.GCRef, ptr %23, i32 0, i32 0
  %25 = load i64, ptr %24, align 8, !tbaa !23
  %26 = and i64 %25, 140737488355327
  %27 = inttoptr i64 %26 to ptr
  %28 = getelementptr inbounds nuw %struct.GCfuncC, ptr %27, i32 0, i32 9
  %29 = getelementptr inbounds [1 x %union.TValue], ptr %28, i64 0, i64 0
  %30 = getelementptr inbounds nuw %struct.GCRef, ptr %29, i32 0, i32 0
  %31 = load i64, ptr %30, align 8, !tbaa !23
  %32 = and i64 %31, 140737488355327
  %33 = inttoptr i64 %32 to ptr
  %34 = getelementptr inbounds %struct.GCudata, ptr %33, i64 1
  store ptr %34, ptr %4, align 8, !tbaa !9
  call void @llvm.lifetime.start.p0(i64 8, ptr %5) #7
  call void @llvm.lifetime.start.p0(i64 8, ptr %6) #7
  %35 = load ptr, ptr %4, align 8, !tbaa !9
  %36 = call i64 @lj_prng_u64d(ptr noundef %35)
  store i64 %36, ptr %5, align 8, !tbaa !23
  %37 = load double, ptr %5, align 8, !tbaa !23
  %38 = fsub double %37, 1.000000e+00
  store double %38, ptr %6, align 8, !tbaa !13
  %39 = load i32, ptr %3, align 4, !tbaa !22
  %40 = icmp sgt i32 %39, 0
  br i1 %40, label %41, label %65

41:                                               ; preds = %1
  call void @llvm.lifetime.start.p0(i64 8, ptr %7) #7
  %42 = load ptr, ptr %2, align 8, !tbaa !4
  %43 = call double @lj_lib_checknum(ptr noundef %42, i32 noundef 1)
  store double %43, ptr %7, align 8, !tbaa !13
  %44 = load i32, ptr %3, align 4, !tbaa !22
  %45 = icmp eq i32 %44, 1
  br i1 %45, label %46, label %52

46:                                               ; preds = %41
  %47 = load double, ptr %6, align 8, !tbaa !13
  %48 = load double, ptr %7, align 8, !tbaa !13
  %49 = fmul double %47, %48
  %50 = call double @lj_vm_floor(double noundef %49)
  %51 = fadd double %50, 1.000000e+00
  store double %51, ptr %6, align 8, !tbaa !13
  br label %64

52:                                               ; preds = %41
  call void @llvm.lifetime.start.p0(i64 8, ptr %8) #7
  %53 = load ptr, ptr %2, align 8, !tbaa !4
  %54 = call double @lj_lib_checknum(ptr noundef %53, i32 noundef 2)
  store double %54, ptr %8, align 8, !tbaa !13
  %55 = load double, ptr %6, align 8, !tbaa !13
  %56 = load double, ptr %8, align 8, !tbaa !13
  %57 = load double, ptr %7, align 8, !tbaa !13
  %58 = fsub double %56, %57
  %59 = fadd double %58, 1.000000e+00
  %60 = fmul double %55, %59
  %61 = call double @lj_vm_floor(double noundef %60)
  %62 = load double, ptr %7, align 8, !tbaa !13
  %63 = fadd double %61, %62
  store double %63, ptr %6, align 8, !tbaa !13
  call void @llvm.lifetime.end.p0(i64 8, ptr %8) #7
  br label %64

64:                                               ; preds = %52, %46
  call void @llvm.lifetime.end.p0(i64 8, ptr %7) #7
  br label %65

65:                                               ; preds = %64, %1
  %66 = load double, ptr %6, align 8, !tbaa !13
  %67 = load ptr, ptr %2, align 8, !tbaa !4
  %68 = getelementptr inbounds nuw %struct.lua_State, ptr %67, i32 0, i32 8
  %69 = load ptr, ptr %68, align 8, !tbaa !21
  %70 = getelementptr inbounds nuw %union.TValue, ptr %69, i32 1
  store ptr %70, ptr %68, align 8, !tbaa !21
  store double %66, ptr %69, align 8, !tbaa !23
  call void @llvm.lifetime.end.p0(i64 8, ptr %6) #7
  call void @llvm.lifetime.end.p0(i64 8, ptr %5) #7
  call void @llvm.lifetime.end.p0(i64 8, ptr %4) #7
  call void @llvm.lifetime.end.p0(i64 4, ptr %3) #7
  ret i32 1
}