; Function Attrs: nounwind uwtable
define internal noundef i32 @lj_cf_math_random(ptr noundef %0) #0 {
  %2 = getelementptr inbounds nuw i8, ptr %0, i64 40
  %3 = load ptr, ptr %2, align 8, !tbaa !15
  %4 = getelementptr inbounds nuw i8, ptr %0, i64 32
  %5 = load ptr, ptr %4, align 8, !tbaa !8
  %6 = ptrtoint ptr %3 to i64
  %7 = ptrtoint ptr %5 to i64
  %8 = sub i64 %6, %7
  %9 = lshr exact i64 %8, 3
  %10 = trunc i64 %9 to i32
  %11 = getelementptr inbounds i8, ptr %5, i64 -16
  %12 = load i64, ptr %11, align 8, !tbaa !17
  %13 = and i64 %12, 140737488355327
  %14 = inttoptr i64 %13 to ptr
  %15 = getelementptr inbounds nuw i8, ptr %14, i64 48
  %16 = load i64, ptr %15, align 8, !tbaa !17
  %17 = and i64 %16, 140737488355327
  %18 = inttoptr i64 %17 to ptr
  %19 = getelementptr inbounds nuw i8, ptr %18, i64 48
  %20 = tail call i64 @lj_prng_u64d(ptr noundef nonnull %19) #5
  %21 = bitcast i64 %20 to double
  %22 = fadd double %21, -1.000000e+00
  %23 = icmp sgt i32 %10, 0
  br i1 %23, label %24, label %38

24:                                               ; preds = %1
  %25 = tail call double @lj_lib_checknum(ptr noundef nonnull %0, i32 noundef 1) #5
  %26 = icmp eq i32 %10, 1
  br i1 %26, label %27, label %31

27:                                               ; preds = %24
  %28 = fmul double %22, %25
  %29 = tail call double @lj_vm_floor(double noundef %28) #5
  %30 = fadd double %29, 1.000000e+00
  br label %38

31:                                               ; preds = %24
  %32 = tail call double @lj_lib_checknum(ptr noundef nonnull %0, i32 noundef 2) #5
  %33 = fsub double %32, %25
  %34 = fadd double %33, 1.000000e+00
  %35 = fmul double %22, %34
  %36 = tail call double @lj_vm_floor(double noundef %35) #5
  %37 = fadd double %25, %36
  br label %38

38:                                               ; preds = %27, %31, %1
  %.0 = phi double [ %22, %1 ], [ %30, %27 ], [ %37, %31 ]
  %39 = load ptr, ptr %2, align 8, !tbaa !15
  %40 = getelementptr inbounds nuw i8, ptr %39, i64 8
  store ptr %40, ptr %2, align 8, !tbaa !15
  store double %.0, ptr %39, align 8, !tbaa !17
  ret i32 1
}